; Function Attrs: mustprogress nofree norecurse nosync nounwind willreturn memory(argmem: readwrite) uwtable
define void @_ZN5faiss18IndexRowwiseMinMaxC2EPNS_5IndexE(ptr noundef nonnull writeonly align 8 captures(none) dereferenceable(49) initializes((0, 12), (16, 26), (28, 36), (40, 49)) %0, ptr noundef %1) unnamed_addr #6 align 2 {
  %3 = getelementptr inbounds nuw i8, ptr %1, i64 8
  %4 = load i32, ptr %3, align 8, !tbaa !29
  %5 = getelementptr inbounds nuw i8, ptr %1, i64 28
  %6 = load i32, ptr %5, align 4, !tbaa !72
  %7 = getelementptr inbounds nuw i8, ptr %0, i64 8
  store i32 %4, ptr %7, align 8, !tbaa !29
  %8 = getelementptr inbounds nuw i8, ptr %0, i64 16
  store i64 0, ptr %8, align 8, !tbaa !73
  %9 = getelementptr inbounds nuw i8, ptr %0, i64 24
  store i8 0, ptr %9, align 8, !tbaa !74
  %10 = getelementptr inbounds nuw i8, ptr %0, i64 25
  store i8 1, ptr %10, align 1, !tbaa !75
  %11 = getelementptr inbounds nuw i8, ptr %0, i64 28
  store i32 %6, ptr %11, align 4, !tbaa !72
  %12 = getelementptr inbounds nuw i8, ptr %0, i64 32
  store float 0.000000e+00, ptr %12, align 8, !tbaa !76
  %13 = getelementptr inbounds nuw i8, ptr %0, i64 40
  store ptr %1, ptr %13, align 8, !tbaa !28
  %14 = getelementptr inbounds nuw i8, ptr %0, i64 48
  store i8 0, ptr %14, align 8, !tbaa !18
  store ptr getelementptr inbounds nuw inrange(-16, 192) (i8, ptr @_ZTVN5faiss18IndexRowwiseMinMaxE, i64 16), ptr %0, align 8, !tbaa !16
  ret void
}